target datalayout = "e-m:e-p270:32:32-p271:32:32-p272:64:64-i64:64-i128:128-f80:128-n8:16:32:64-S128"
target triple = "x86_64-pc-linux-gnu"

%"class.OpenColorIO_v2_5dev::RangeOpCPU" = type { %"class.OpenColorIO_v2_5dev::OpCPU", float, float, float, float }
%"class.OpenColorIO_v2_5dev::OpCPU" = type { ptr }

; Function Attrs: inlinehint mustprogress nounwind uwtable
define linkonce_odr noundef nonnull align 4 dereferenceable(4) ptr @_ZSt3minIfERKT_S2_S2_(ptr noundef nonnull align 4 dereferenceable(4) %0, ptr noundef nonnull align 4 dereferenceable(4) %1) #7 comdat {
  %3 = alloca ptr, align 8
  %4 = alloca ptr, align 8
  %5 = alloca ptr, align 8
  store ptr %0, ptr %4, align 8, !tbaa !56
  store ptr %1, ptr %5, align 8, !tbaa !56
  %6 = load ptr, ptr %5, align 8, !tbaa !56
  %7 = load float, ptr %6, align 4, !tbaa !58
  %8 = load ptr, ptr %4, align 8, !tbaa !56
  %9 = load float, ptr %8, align 4, !tbaa !58
  %10 = fcmp olt float %7, %9
  br i1 %10, label %11, label %13

11:                                               ; preds = %2
  %12 = load ptr, ptr %5, align 8, !tbaa !56
  store ptr %12, ptr %3, align 8
  br label %15

13:                                               ; preds = %2
  %14 = load ptr, ptr %4, align 8, !tbaa !56
  store ptr %14, ptr %3, align 8
  br label %15

15:                                               ; preds = %13, %11
  %16 = load ptr, ptr %3, align 8
  ret ptr %16
}

; Function Attrs: inlinehint mustprogress nounwind uwtable
define linkonce_odr noundef nonnull align 4 dereferenceable(4) ptr @_ZSt3maxIfERKT_S2_S2_(ptr noundef nonnull align 4 dereferenceable(4) %0, ptr noundef nonnull align 4 dereferenceable(4) %1) #7 comdat {
  %3 = alloca ptr, align 8
  %4 = alloca ptr, align 8
  %5 = alloca ptr, align 8
  store ptr %0, ptr %4, align 8, !tbaa !56
  store ptr %1, ptr %5, align 8, !tbaa !56
  %6 = load ptr, ptr %4, align 8, !tbaa !56
  %7 = load float, ptr %6, align 4, !tbaa !58
  %8 = load ptr, ptr %5, align 8, !tbaa !56
  %9 = load float, ptr %8, align 4, !tbaa !58
  %10 = fcmp olt float %7, %9
  br i1 %10, label %11, label %13

11:                                               ; preds = %2
  %12 = load ptr, ptr %5, align 8, !tbaa !56
  store ptr %12, ptr %3, align 8
  br label %15

13:                                               ; preds = %2
  %14 = load ptr, ptr %4, align 8, !tbaa !56
  store ptr %14, ptr %3, align 8
  br label %15

15:                                               ; preds = %13, %11
  %16 = load ptr, ptr %3, align 8
  ret ptr %16
}

; Function Attrs: inlinehint mustprogress nounwind uwtable
define linkonce_odr hidden noundef float @_ZN19OpenColorIO_v2_5dev5ClampIfEET_S1_S1_S1_(float noundef %0, float noundef %1, float noundef %2) #7 comdat {
  %4 = alloca float, align 4
  %5 = alloca float, align 4
  %6 = alloca float, align 4
  store float %0, ptr %4, align 4, !tbaa !58
  store float %1, ptr %5, align 4, !tbaa !58
  store float %2, ptr %6, align 4, !tbaa !58
  %7 = call noundef nonnull align 4 dereferenceable(4) ptr @_ZSt3maxIfERKT_S2_S2_(ptr noundef nonnull align 4 dereferenceable(4) %5, ptr noundef nonnull align 4 dereferenceable(4) %4)
  %8 = call noundef nonnull align 4 dereferenceable(4) ptr @_ZSt3minIfERKT_S2_S2_(ptr noundef nonnull align 4 dereferenceable(4) %7, ptr noundef nonnull align 4 dereferenceable(4) %6)
  %9 = load float, ptr %8, align 4, !tbaa !58
  ret float %9
}

; Function Attrs: mustprogress uwtable
define hidden void @_ZNK19OpenColorIO_v2_5dev19RangeMinMaxRenderer5applyEPKvPvl(ptr noundef nonnull align 8 dereferenceable(24) %0, ptr noundef %1, ptr noundef %2, i64 noundef %3) unnamed_addr #4 align 2 {
  %5 = alloca ptr, align 8
  %6 = alloca ptr, align 8
  %7 = alloca ptr, align 8
  %8 = alloca i64, align 8
  %9 = alloca ptr, align 8
  %10 = alloca ptr, align 8
  %11 = alloca i64, align 8
  store ptr %0, ptr %5, align 8, !tbaa !61
  store ptr %1, ptr %6, align 8, !tbaa !54
  store ptr %2, ptr %7, align 8, !tbaa !54
  store i64 %3, ptr %8, align 8, !tbaa !55
  %12 = load ptr, ptr %5, align 8
  call void @llvm.lifetime.start.p0(i64 8, ptr %9) #3
  %13 = load ptr, ptr %6, align 8, !tbaa !54
  store ptr %13, ptr %9, align 8, !tbaa !56
  call void @llvm.lifetime.start.p0(i64 8, ptr %10) #3
  %14 = load ptr, ptr %7, align 8, !tbaa !54
  store ptr %14, ptr %10, align 8, !tbaa !56
  call void @llvm.lifetime.start.p0(i64 8, ptr %11) #3
  store i64 0, ptr %11, align 8, !tbaa !55
  br label %15

15:                                               ; preds = %60, %4
  %16 = load i64, ptr %11, align 8, !tbaa !55
  %17 = load i64, ptr %8, align 8, !tbaa !55
  %18 = icmp slt i64 %16, %17
  br i1 %18, label %20, label %19

19:                                               ; preds = %15
  call void @llvm.lifetime.end.p0(i64 8, ptr %11) #3
  br label %63

20:                                               ; preds = %15
  %21 = load ptr, ptr %9, align 8, !tbaa !56
  %22 = getelementptr inbounds float, ptr %21, i64 0
  %23 = load float, ptr %22, align 4, !tbaa !58
  %24 = getelementptr inbounds nuw %"class.OpenColorIO_v2_5dev::RangeOpCPU", ptr %12, i32 0, i32 3
  %25 = load float, ptr %24, align 8, !tbaa !17
  %26 = getelementptr inbounds nuw %"class.OpenColorIO_v2_5dev::RangeOpCPU", ptr %12, i32 0, i32 4
  %27 = load float, ptr %26, align 4, !tbaa !18
  %28 = call noundef float @_ZN19OpenColorIO_v2_5dev5ClampIfEET_S1_S1_S1_(float noundef %23, float noundef %25, float noundef %27)
  %29 = load ptr, ptr %10, align 8, !tbaa !56
  %30 = getelementptr inbounds float, ptr %29, i64 0
  store float %28, ptr %30, align 4, !tbaa !58
  %31 = load ptr, ptr %9, align 8, !tbaa !56
  %32 = getelementptr inbounds float, ptr %31, i64 1
  %33 = load float, ptr %32, align 4, !tbaa !58
  %34 = getelementptr inbounds nuw %"class.OpenColorIO_v2_5dev::RangeOpCPU", ptr %12, i32 0, i32 3
  %35 = load float, ptr %34, align 8, !tbaa !17
  %36 = getelementptr inbounds nuw %"class.OpenColorIO_v2_5dev::RangeOpCPU", ptr %12, i32 0, i32 4
  %37 = load float, ptr %36, align 4, !tbaa !18
  %38 = call noundef float @_ZN19OpenColorIO_v2_5dev5ClampIfEET_S1_S1_S1_(float noundef %33, float noundef %35, float noundef %37)
  %39 = load ptr, ptr %10, align 8, !tbaa !56
  %40 = getelementptr inbounds float, ptr %39, i64 1
  store float %38, ptr %40, align 4, !tbaa !58
  %41 = load ptr, ptr %9, align 8, !tbaa !56
  %42 = getelementptr inbounds float, ptr %41, i64 2
  %43 = load float, ptr %42, align 4, !tbaa !58
  %44 = getelementptr inbounds nuw %"class.OpenColorIO_v2_5dev::RangeOpCPU", ptr %12, i32 0, i32 3
  %45 = load float, ptr %44, align 8, !tbaa !17
  %46 = getelementptr inbounds nuw %"class.OpenColorIO_v2_5dev::RangeOpCPU", ptr %12, i32 0, i32 4
  %47 = load float, ptr %46, align 4, !tbaa !18
  %48 = call noundef float @_ZN19OpenColorIO_v2_5dev5ClampIfEET_S1_S1_S1_(float noundef %43, float noundef %45, float noundef %47)
  %49 = load ptr, ptr %10, align 8, !tbaa !56
  %50 = getelementptr inbounds float, ptr %49, i64 2
  store float %48, ptr %50, align 4, !tbaa !58
  %51 = load ptr, ptr %9, align 8, !tbaa !56
  %52 = getelementptr inbounds float, ptr %51, i64 3
  %53 = load float, ptr %52, align 4, !tbaa !58
  %54 = load ptr, ptr %10, align 8, !tbaa !56
  %55 = getelementptr inbounds float, ptr %54, i64 3
  store float %53, ptr %55, align 4, !tbaa !58
  %56 = load ptr, ptr %9, align 8, !tbaa !56
  %57 = getelementptr inbounds float, ptr %56, i64 4
  store ptr %57, ptr %9, align 8, !tbaa !56
  %58 = load ptr, ptr %10, align 8, !tbaa !56
  %59 = getelementptr inbounds float, ptr %58, i64 4
  store ptr %59, ptr %10, align 8, !tbaa !56
  br label %60

60:                                               ; preds = %20
  %61 = load i64, ptr %11, align 8, !tbaa !55
  %62 = add nsw i64 %61, 1
  store i64 %62, ptr %11, align 8, !tbaa !55
  br label %15, !llvm.loop !63

63:                                               ; preds = %19
  call void @llvm.lifetime.end.p0(i64 8, ptr %10) #3
  call void @llvm.lifetime.end.p0(i64 8, ptr %9) #3
  ret void
}