; Function Attrs: mustprogress nofree norecurse nosync nounwind memory(argmem: readwrite) uwtable
define hidden void @_ZNK19OpenColorIO_v2_5dev19RangeMinMaxRenderer5applyEPKvPvl(ptr noundef nonnull readonly align 8 captures(none) dereferenceable(24) %0, ptr noundef readonly captures(none) %1, ptr noundef writeonly captures(none) %2, i64 noundef %3) unnamed_addr #5 align 2 {
  %5 = icmp sgt i64 %3, 0
  br i1 %5, label %.lr.ph, label %._crit_edge

.lr.ph:                                           ; preds = %4
  %6 = getelementptr inbounds nuw i8, ptr %0, i64 16
  %7 = getelementptr inbounds nuw i8, ptr %0, i64 20
  br label %8

._crit_edge:                                      ; preds = %8, %4
  ret void

8:                                                ; preds = %.lr.ph, %8
  %.023 = phi i64 [ 0, %.lr.ph ], [ %33, %8 ]
  %.01522 = phi ptr [ %2, %.lr.ph ], [ %32, %8 ]
  %.01621 = phi ptr [ %1, %.lr.ph ], [ %31, %8 ]
  %9 = load float, ptr %.01621, align 4, !tbaa !47
  %10 = load float, ptr %6, align 8, !tbaa !44
  %11 = load float, ptr %7, align 4, !tbaa !46
  %12 = fcmp olt float %10, %9
  %.sroa.speculated2.i = select i1 %12, float %9, float %10
  %13 = fcmp olt float %11, %.sroa.speculated2.i
  %.sroa.speculated.i = select i1 %13, float %11, float %.sroa.speculated2.i
  store float %.sroa.speculated.i, ptr %.01522, align 4, !tbaa !47
  %14 = getelementptr inbounds nuw i8, ptr %.01621, i64 4
  %15 = load float, ptr %14, align 4, !tbaa !47
  %16 = load float, ptr %6, align 8, !tbaa !44
  %17 = load float, ptr %7, align 4, !tbaa !46
  %18 = fcmp olt float %16, %15
  %.sroa.speculated2.i17 = select i1 %18, float %15, float %16
  %19 = fcmp olt float %17, %.sroa.speculated2.i17
  %.sroa.speculated.i18 = select i1 %19, float %17, float %.sroa.speculated2.i17
  %20 = getelementptr inbounds nuw i8, ptr %.01522, i64 4
  store float %.sroa.speculated.i18, ptr %20, align 4, !tbaa !47
  %21 = getelementptr inbounds nuw i8, ptr %.01621, i64 8
  %22 = load float, ptr %21, align 4, !tbaa !47
  %23 = load float, ptr %6, align 8, !tbaa !44
  %24 = load float, ptr %7, align 4, !tbaa !46
  %25 = fcmp olt float %23, %22
  %.sroa.speculated2.i19 = select i1 %25, float %22, float %23
  %26 = fcmp olt float %24, %.sroa.speculated2.i19
  %.sroa.speculated.i20 = select i1 %26, float %24, float %.sroa.speculated2.i19
  %27 = getelementptr inbounds nuw i8, ptr %.01522, i64 8
  store float %.sroa.speculated.i20, ptr %27, align 4, !tbaa !47
  %28 = getelementptr inbounds nuw i8, ptr %.01621, i64 12
  %29 = load float, ptr %28, align 4, !tbaa !47
  %30 = getelementptr inbounds nuw i8, ptr %.01522, i64 12
  store float %29, ptr %30, align 4, !tbaa !47
  %31 = getelementptr inbounds nuw i8, ptr %.01621, i64 16
  %32 = getelementptr inbounds nuw i8, ptr %.01522, i64 16
  %33 = add nuw nsw i64 %.023, 1
  %exitcond.not = icmp eq i64 %33, %3
  br i1 %exitcond.not, label %._crit_edge, label %8, !llvm.loop !50
}